target datalayout = "e-m:e-p270:32:32-p271:32:32-p272:64:64-i64:64-i128:128-f80:128-n8:16:32:64-S128"
target triple = "x86_64-pc-linux-gnu"

%struct.VirtualTransactionId = type { i32, i32 }
%struct.PGPROC = type { %struct.dlist_node, ptr, ptr, i32, %struct.Latch, i32, i32, i32, i32, %struct.anon, i32, i32, i32, i8, i8, i8, i8, %struct.proclist_node, %struct.proclist_node, ptr, ptr, i32, i32, %struct.pg_atomic_uint64, i32, i8, i64, i32, %struct.dlist_node, [16 x %struct.dlist_head], %struct.XidCacheStatus, %struct.XidCache, i8, %struct.pg_atomic_uint32, i32, i32, i8, %struct.pg_atomic_uint32, i32, i32, i64, i64, %struct.LWLock, ptr, ptr, i8, i32, ptr, %struct.dlist_head, %struct.dlist_node }
%struct.Latch = type { i32, i32, i8, i32 }
%struct.anon = type { i32, i32 }
%struct.proclist_node = type { i32, i32 }
%struct.pg_atomic_uint64 = type { i64 }
%struct.XidCacheStatus = type { i8, i8 }
%struct.XidCache = type { [64 x i32] }
%struct.pg_atomic_uint32 = type { i32 }
%struct.LWLock = type { i16, %struct.pg_atomic_uint32, %struct.proclist_head }
%struct.proclist_head = type { i32, i32 }
%struct.dlist_head = type { %struct.dlist_node }
%struct.dlist_node = type { ptr, ptr }
%struct.LOCKTAG = type { i32, i32, i32, i16, i8, i8 }
%struct.EnableTimeoutParams = type { i32, i32, i32, i64 }

@max_standby_archive_delay = dso_local global i32 30000, align 4
@max_standby_streaming_delay = dso_local global i32 30000, align 4
@MyProc = external global ptr, align 8
@got_standby_lock_timeout = internal global i32 0, align 4
@got_standby_deadlock_timeout = internal global i32 0, align 4
@DeadlockTimeout = external global i32, align 4

; Function Attrs: inlinehint nounwind uwtable
define internal void @pg_atomic_write_u64_impl(ptr noundef %0, i64 noundef %1) #5 {
  %3 = alloca ptr, align 8
  %4 = alloca i64, align 8
  store ptr %0, ptr %3, align 8
  store i64 %1, ptr %4, align 8
  %5 = load i64, ptr %4, align 8
  %6 = load ptr, ptr %3, align 8
  %7 = getelementptr inbounds nuw %struct.pg_atomic_uint64, ptr %6, i32 0, i32 0
  store volatile i64 %5, ptr %7, align 8
  ret void
}

; Function Attrs: inlinehint nounwind uwtable
define internal i64 @pg_atomic_read_u64_impl(ptr noundef %0) #5 {
  %2 = alloca ptr, align 8
  store ptr %0, ptr %2, align 8
  %3 = load ptr, ptr %2, align 8
  %4 = getelementptr inbounds nuw %struct.pg_atomic_uint64, ptr %3, i32 0, i32 0
  %5 = load volatile i64, ptr %4, align 8
  ret i64 %5
}

; Function Attrs: inlinehint nounwind uwtable
define internal void @pg_atomic_write_u64(ptr noundef %0, i64 noundef %1) #5 {
  %3 = alloca ptr, align 8
  %4 = alloca i64, align 8
  store ptr %0, ptr %3, align 8
  store i64 %1, ptr %4, align 8
  %5 = load ptr, ptr %3, align 8
  %6 = load i64, ptr %4, align 8
  call void @pg_atomic_write_u64_impl(ptr noundef %5, i64 noundef %6)
  ret void
}

; Function Attrs: inlinehint nounwind uwtable
define internal i64 @pg_atomic_read_u64(ptr noundef %0) #5 {
  %2 = alloca ptr, align 8
  store ptr %0, ptr %2, align 8
  %3 = load ptr, ptr %2, align 8
  %4 = call i64 @pg_atomic_read_u64_impl(ptr noundef %3)
  ret i64 %4
}

; Function Attrs: nounwind uwtable
define internal i64 @GetStandbyLimitTime() #0 {
  %1 = alloca i64, align 8
  %2 = alloca i64, align 8
  %3 = alloca i8, align 1
  %4 = alloca i32, align 4
  call void @llvm.lifetime.start.p0(i64 8, ptr %2) #8
  call void @llvm.lifetime.start.p0(i64 1, ptr %3) #8
  call void @GetXLogReceiptTime(ptr noundef %2, ptr noundef %3)
  %5 = load i8, ptr %3, align 1, !range !7, !noundef !8
  %6 = trunc i8 %5 to i1
  br i1 %6, label %7, label %17

7:                                                ; preds = %0
  %8 = load i32, ptr @max_standby_streaming_delay, align 4
  %9 = icmp slt i32 %8, 0
  br i1 %9, label %10, label %11

10:                                               ; preds = %7
  store i64 0, ptr %1, align 8
  store i32 1, ptr %4, align 4
  br label %27

11:                                               ; preds = %7
  %12 = load i64, ptr %2, align 8
  %13 = load i32, ptr @max_standby_streaming_delay, align 4
  %14 = sext i32 %13 to i64
  %15 = mul i64 %14, 1000
  %16 = add i64 %12, %15
  store i64 %16, ptr %1, align 8
  store i32 1, ptr %4, align 4
  br label %27

17:                                               ; preds = %0
  %18 = load i32, ptr @max_standby_archive_delay, align 4
  %19 = icmp slt i32 %18, 0
  br i1 %19, label %20, label %21

20:                                               ; preds = %17
  store i64 0, ptr %1, align 8
  store i32 1, ptr %4, align 4
  br label %27

21:                                               ; preds = %17
  %22 = load i64, ptr %2, align 8
  %23 = load i32, ptr @max_standby_archive_delay, align 4
  %24 = sext i32 %23 to i64
  %25 = mul i64 %24, 1000
  %26 = add i64 %22, %25
  store i64 %26, ptr %1, align 8
  store i32 1, ptr %4, align 4
  br label %27

27:                                               ; preds = %21, %20, %11, %10
  call void @llvm.lifetime.end.p0(i64 1, ptr %3) #8
  call void @llvm.lifetime.end.p0(i64 8, ptr %2) #8
  %28 = load i64, ptr %1, align 8
  ret i64 %28
}

; Function Attrs: nounwind uwtable
define dso_local void @ResolveRecoveryConflictWithLock(i64 %0, i64 %1, i1 noundef zeroext %2) #0 {
  %4 = alloca %struct.LOCKTAG, align 4
  %5 = alloca i8, align 1
  %6 = alloca i64, align 8
  %7 = alloca i64, align 8
  %8 = alloca ptr, align 8
  %9 = alloca [2 x %struct.EnableTimeoutParams], align 16
  %10 = alloca i32, align 4
  %11 = alloca ptr, align 8
  %12 = alloca i32, align 4
  %13 = getelementptr inbounds nuw { i64, i64 }, ptr %4, i32 0, i32 0
  store i64 %0, ptr %13, align 4
  %14 = getelementptr inbounds nuw { i64, i64 }, ptr %4, i32 0, i32 1
  store i64 %1, ptr %14, align 4
  %15 = zext i1 %2 to i8
  store i8 %15, ptr %5, align 1
  call void @llvm.lifetime.start.p0(i64 8, ptr %6) #8
  call void @llvm.lifetime.start.p0(i64 8, ptr %7) #8
  %16 = call i64 @GetStandbyLimitTime()
  store i64 %16, ptr %6, align 8
  %17 = call i64 @GetCurrentTimestamp()
  store i64 %17, ptr %7, align 8
  %18 = load ptr, ptr @MyProc, align 8
  %19 = getelementptr inbounds nuw %struct.PGPROC, ptr %18, i32 0, i32 23
  %20 = call i64 @pg_atomic_read_u64(ptr noundef %19)
  %21 = icmp eq i64 %20, 0
  br i1 %21, label %22, label %26

22:                                               ; preds = %3
  %23 = load ptr, ptr @MyProc, align 8
  %24 = getelementptr inbounds nuw %struct.PGPROC, ptr %23, i32 0, i32 23
  %25 = load i64, ptr %7, align 8
  call void @pg_atomic_write_u64(ptr noundef %24, i64 noundef %25)
  br label %26

26:                                               ; preds = %22, %3
  %27 = load i64, ptr %7, align 8
  %28 = load i64, ptr %6, align 8
  %29 = icmp sge i64 %27, %28
  br i1 %29, label %30, label %40

30:                                               ; preds = %26
  %31 = load i64, ptr %6, align 8
  %32 = icmp ne i64 %31, 0
  br i1 %32, label %33, label %40

33:                                               ; preds = %30
  call void @llvm.lifetime.start.p0(i64 8, ptr %8) #8
  %34 = call ptr @GetLockConflicts(ptr noundef %4, i32 noundef 8, ptr noundef null)
  store ptr %34, ptr %8, align 8
  %35 = load ptr, ptr %8, align 8
  %36 = getelementptr inbounds nuw %struct.LOCKTAG, ptr %4, i32 0, i32 4
  %37 = load i8, ptr %36, align 2
  %38 = zext i8 %37 to i32
  %39 = or i32 50331648, %38
  call void @ResolveRecoveryConflictWithVirtualXIDs(ptr noundef %35, i32 noundef 9, i32 noundef %39, i1 noundef zeroext false)
  call void @llvm.lifetime.end.p0(i64 8, ptr %8) #8
  br label %77

40:                                               ; preds = %30, %26
  call void @llvm.lifetime.start.p0(i64 48, ptr %9) #8
  call void @llvm.lifetime.start.p0(i64 4, ptr %10) #8
  store i32 0, ptr %10, align 4
  %41 = load i64, ptr %6, align 8
  %42 = icmp ne i64 %41, 0
  br i1 %42, label %43, label %59

43:                                               ; preds = %40
  store volatile i32 0, ptr @got_standby_lock_timeout, align 4
  %44 = load i32, ptr %10, align 4
  %45 = sext i32 %44 to i64
  %46 = getelementptr inbounds [2 x %struct.EnableTimeoutParams], ptr %9, i64 0, i64 %45
  %47 = getelementptr inbounds nuw %struct.EnableTimeoutParams, ptr %46, i32 0, i32 0
  store i32 6, ptr %47, align 8
  %48 = load i32, ptr %10, align 4
  %49 = sext i32 %48 to i64
  %50 = getelementptr inbounds [2 x %struct.EnableTimeoutParams], ptr %9, i64 0, i64 %49
  %51 = getelementptr inbounds nuw %struct.EnableTimeoutParams, ptr %50, i32 0, i32 1
  store i32 1, ptr %51, align 4
  %52 = load i64, ptr %6, align 8
  %53 = load i32, ptr %10, align 4
  %54 = sext i32 %53 to i64
  %55 = getelementptr inbounds [2 x %struct.EnableTimeoutParams], ptr %9, i64 0, i64 %54
  %56 = getelementptr inbounds nuw %struct.EnableTimeoutParams, ptr %55, i32 0, i32 3
  store i64 %52, ptr %56, align 8
  %57 = load i32, ptr %10, align 4
  %58 = add i32 %57, 1
  store i32 %58, ptr %10, align 4
  br label %59

59:                                               ; preds = %43, %40
  store volatile i32 0, ptr @got_standby_deadlock_timeout, align 4
  %60 = load i32, ptr %10, align 4
  %61 = sext i32 %60 to i64
  %62 = getelementptr inbounds [2 x %struct.EnableTimeoutParams], ptr %9, i64 0, i64 %61
  %63 = getelementptr inbounds nuw %struct.EnableTimeoutParams, ptr %62, i32 0, i32 0
  store i32 4, ptr %63, align 8
  %64 = load i32, ptr %10, align 4
  %65 = sext i32 %64 to i64
  %66 = getelementptr inbounds [2 x %struct.EnableTimeoutParams], ptr %9, i64 0, i64 %65
  %67 = getelementptr inbounds nuw %struct.EnableTimeoutParams, ptr %66, i32 0, i32 1
  store i32 0, ptr %67, align 4
  %68 = load i32, ptr @DeadlockTimeout, align 4
  %69 = load i32, ptr %10, align 4
  %70 = sext i32 %69 to i64
  %71 = getelementptr inbounds [2 x %struct.EnableTimeoutParams], ptr %9, i64 0, i64 %70
  %72 = getelementptr inbounds nuw %struct.EnableTimeoutParams, ptr %71, i32 0, i32 2
  store i32 %68, ptr %72, align 8
  %73 = load i32, ptr %10, align 4
  %74 = add i32 %73, 1
  store i32 %74, ptr %10, align 4
  %75 = getelementptr inbounds [2 x %struct.EnableTimeoutParams], ptr %9, i64 0, i64 0
  %76 = load i32, ptr %10, align 4
  call void @enable_timeouts(ptr noundef %75, i32 noundef %76)
  call void @llvm.lifetime.end.p0(i64 4, ptr %10) #8
  call void @llvm.lifetime.end.p0(i64 48, ptr %9) #8
  br label %77

77:                                               ; preds = %59, %33
  %78 = getelementptr inbounds nuw %struct.LOCKTAG, ptr %4, i32 0, i32 4
  %79 = load i8, ptr %78, align 2
  %80 = zext i8 %79 to i32
  %81 = or i32 50331648, %80
  call void @ProcWaitForSignal(i32 noundef %81)
  %82 = load volatile i32, ptr @got_standby_lock_timeout, align 4
  %83 = icmp ne i32 %82, 0
  br i1 %83, label %84, label %85

84:                                               ; preds = %77
  br label %120

85:                                               ; preds = %77
  %86 = load volatile i32, ptr @got_standby_deadlock_timeout, align 4
  %87 = icmp ne i32 %86, 0
  br i1 %87, label %88, label %119

88:                                               ; preds = %85
  call void @llvm.lifetime.start.p0(i64 8, ptr %11) #8
  %89 = call ptr @GetLockConflicts(ptr noundef %4, i32 noundef 8, ptr noundef null)
  store ptr %89, ptr %11, align 8
  %90 = load ptr, ptr %11, align 8
  %91 = getelementptr inbounds nuw %struct.VirtualTransactionId, ptr %90, i32 0, i32 1
  %92 = load i32, ptr %91, align 4
  %93 = icmp ne i32 %92, 0
  br i1 %93, label %95, label %94

94:                                               ; preds = %88
  store i32 2, ptr %12, align 4
  br label %116

95:                                               ; preds = %88
  br label %96

96:                                               ; preds = %101, %95
  %97 = load ptr, ptr %11, align 8
  %98 = getelementptr inbounds nuw %struct.VirtualTransactionId, ptr %97, i32 0, i32 1
  %99 = load i32, ptr %98, align 4
  %100 = icmp ne i32 %99, 0
  br i1 %100, label %101, label %107

101:                                              ; preds = %96
  %102 = load ptr, ptr %11, align 8
  %103 = load i64, ptr %102, align 4
  %104 = call i32 @SignalVirtualTransaction(i64 %103, i32 noundef 13, i1 noundef zeroext false)
  %105 = load ptr, ptr %11, align 8
  %106 = getelementptr inbounds nuw %struct.VirtualTransactionId, ptr %105, i32 1
  store ptr %106, ptr %11, align 8
  br label %96, !llvm.loop !12

107:                                              ; preds = %96
  %108 = load i8, ptr %5, align 1, !range !7, !noundef !8
  %109 = trunc i8 %108 to i1
  br i1 %109, label %110, label %111

110:                                              ; preds = %107
  store i32 2, ptr %12, align 4
  br label %116

111:                                              ; preds = %107
  store volatile i32 0, ptr @got_standby_deadlock_timeout, align 4
  %112 = getelementptr inbounds nuw %struct.LOCKTAG, ptr %4, i32 0, i32 4
  %113 = load i8, ptr %112, align 2
  %114 = zext i8 %113 to i32
  %115 = or i32 50331648, %114
  call void @ProcWaitForSignal(i32 noundef %115)
  store i32 0, ptr %12, align 4
  br label %116

116:                                              ; preds = %110, %94, %111
  call void @llvm.lifetime.end.p0(i64 8, ptr %11) #8
  %117 = load i32, ptr %12, align 4
  switch i32 %117, label %121 [
    i32 0, label %118
    i32 2, label %120
  ]

118:                                              ; preds = %116
  br label %119

119:                                              ; preds = %118, %85
  br label %120

120:                                              ; preds = %119, %116, %84
  call void @disable_all_timeouts(i1 noundef zeroext false)
  store volatile i32 0, ptr @got_standby_lock_timeout, align 4
  store volatile i32 0, ptr @got_standby_deadlock_timeout, align 4
  call void @llvm.lifetime.end.p0(i64 8, ptr %7) #8
  call void @llvm.lifetime.end.p0(i64 8, ptr %6) #8
  ret void

121:                                              ; preds = %116
  unreachable
}