; Function Attrs: nounwind uwtable
define dso_local void @ResolveRecoveryConflictWithLock(i64 %0, i64 %1, i1 noundef zeroext %2) local_unnamed_addr #0 {
  %4 = alloca i64, align 8
  %5 = alloca i8, align 1
  %6 = alloca %struct.LOCKTAG, align 8
  %7 = alloca [2 x %struct.EnableTimeoutParams], align 16
  store i64 %0, ptr %6, align 8
  %8 = getelementptr inbounds nuw i8, ptr %6, i64 8
  store i64 %1, ptr %8, align 8
  call void @llvm.lifetime.start.p0(i64 8, ptr nonnull %4) #7
  call void @llvm.lifetime.start.p0(i64 1, ptr nonnull %5) #7
  call void @GetXLogReceiptTime(ptr noundef nonnull %4, ptr noundef nonnull %5) #7
  %9 = load i8, ptr %5, align 1, !range !7, !noundef !8
  %10 = trunc nuw i8 %9 to i1
  br i1 %10, label %11, label %19

11:                                               ; preds = %3
  %12 = load i32, ptr @max_standby_streaming_delay, align 4
  %13 = icmp slt i32 %12, 0
  br i1 %13, label %GetStandbyLimitTime.exit, label %14

14:                                               ; preds = %11
  %15 = load i64, ptr %4, align 8
  %16 = zext nneg i32 %12 to i64
  %17 = mul nuw nsw i64 %16, 1000
  %18 = add i64 %15, %17
  br label %GetStandbyLimitTime.exit

19:                                               ; preds = %3
  %20 = load i32, ptr @max_standby_archive_delay, align 4
  %21 = icmp slt i32 %20, 0
  br i1 %21, label %GetStandbyLimitTime.exit, label %22

22:                                               ; preds = %19
  %23 = load i64, ptr %4, align 8
  %24 = zext nneg i32 %20 to i64
  %25 = mul nuw nsw i64 %24, 1000
  %26 = add i64 %23, %25
  br label %GetStandbyLimitTime.exit

GetStandbyLimitTime.exit:                         ; preds = %11, %14, %19, %22
  %.0.i = phi i64 [ %18, %14 ], [ %26, %22 ], [ 0, %11 ], [ 0, %19 ]
  call void @llvm.lifetime.end.p0(i64 1, ptr nonnull %5) #7
  call void @llvm.lifetime.end.p0(i64 8, ptr nonnull %4) #7
  %27 = call i64 @GetCurrentTimestamp() #7
  %28 = load ptr, ptr @MyProc, align 8
  %29 = getelementptr inbounds nuw i8, ptr %28, i64 136
  %30 = load volatile i64, ptr %29, align 8
  %31 = icmp eq i64 %30, 0
  br i1 %31, label %32, label %33

32:                                               ; preds = %GetStandbyLimitTime.exit
  store volatile i64 %27, ptr %29, align 8
  br label %33

33:                                               ; preds = %32, %GetStandbyLimitTime.exit
  %34 = icmp sge i64 %27, %.0.i
  %35 = icmp ne i64 %.0.i, 0
  %or.cond = and i1 %35, %34
  br i1 %or.cond, label %36, label %42

36:                                               ; preds = %33
  %37 = call ptr @GetLockConflicts(ptr noundef nonnull %6, i32 noundef 8, ptr noundef null) #7
  %38 = getelementptr inbounds nuw i8, ptr %6, i64 14
  %39 = load i8, ptr %38, align 2
  %40 = zext i8 %39 to i32
  %41 = or disjoint i32 %40, 50331648
  call fastcc void @ResolveRecoveryConflictWithVirtualXIDs(ptr noundef %37, i32 noundef 9, i32 noundef %41, i1 noundef zeroext false)
  br label %53

42:                                               ; preds = %33
  call void @llvm.lifetime.start.p0(i64 48, ptr nonnull %7) #7
  br i1 %35, label %43, label %46

43:                                               ; preds = %42
  store volatile i32 0, ptr @got_standby_lock_timeout, align 4
  store i32 6, ptr %7, align 16
  %44 = getelementptr inbounds nuw i8, ptr %7, i64 4
  store i32 1, ptr %44, align 4
  %45 = getelementptr inbounds nuw i8, ptr %7, i64 16
  store i64 %.0.i, ptr %45, align 16
  br label %46

46:                                               ; preds = %43, %42
  %.021 = phi i32 [ 1, %43 ], [ 0, %42 ]
  store volatile i32 0, ptr @got_standby_deadlock_timeout, align 4
  %47 = zext nneg i32 %.021 to i64
  %48 = getelementptr inbounds nuw [2 x %struct.EnableTimeoutParams], ptr %7, i64 0, i64 %47
  store i32 4, ptr %48, align 8
  %49 = getelementptr inbounds nuw i8, ptr %48, i64 4
  store i32 0, ptr %49, align 4
  %50 = load i32, ptr @DeadlockTimeout, align 4
  %51 = getelementptr inbounds nuw i8, ptr %48, i64 8
  store i32 %50, ptr %51, align 8
  %52 = add nuw nsw i32 %.021, 1
  call void @enable_timeouts(ptr noundef nonnull %7, i32 noundef %52) #7
  call void @llvm.lifetime.end.p0(i64 48, ptr nonnull %7) #7
  br label %53

53:                                               ; preds = %46, %36
  %54 = getelementptr inbounds nuw i8, ptr %6, i64 14
  %55 = load i8, ptr %54, align 2
  %56 = zext i8 %55 to i32
  %57 = or disjoint i32 %56, 50331648
  call void @ProcWaitForSignal(i32 noundef %57) #7
  %58 = load volatile i32, ptr @got_standby_lock_timeout, align 4
  %.not = icmp eq i32 %58, 0
  br i1 %.not, label %59, label %74

59:                                               ; preds = %53
  %60 = load volatile i32, ptr @got_standby_deadlock_timeout, align 4
  %.not23 = icmp eq i32 %60, 0
  br i1 %.not23, label %74, label %61

61:                                               ; preds = %59
  %62 = call ptr @GetLockConflicts(ptr noundef nonnull %6, i32 noundef 8, ptr noundef null) #7
  %63 = getelementptr inbounds nuw i8, ptr %62, i64 4
  %64 = load i32, ptr %63, align 4
  %.not24 = icmp eq i32 %64, 0
  br i1 %.not24, label %74, label %.lr.ph

.lr.ph:                                           ; preds = %61, %.lr.ph
  %.027 = phi ptr [ %67, %.lr.ph ], [ %62, %61 ]
  %65 = load i64, ptr %.027, align 4
  %66 = call i32 @SignalVirtualTransaction(i64 %65, i32 noundef 13, i1 noundef zeroext false) #7
  %67 = getelementptr inbounds nuw i8, ptr %.027, i64 8
  %68 = getelementptr inbounds nuw i8, ptr %.027, i64 12
  %69 = load i32, ptr %68, align 4
  %.not25 = icmp eq i32 %69, 0
  br i1 %.not25, label %._crit_edge, label %.lr.ph, !llvm.loop !13

._crit_edge:                                      ; preds = %.lr.ph
  br i1 %2, label %74, label %70

70:                                               ; preds = %._crit_edge
  store volatile i32 0, ptr @got_standby_deadlock_timeout, align 4
  %71 = load i8, ptr %54, align 2
  %72 = zext i8 %71 to i32
  %73 = or disjoint i32 %72, 50331648
  call void @ProcWaitForSignal(i32 noundef %73) #7
  br label %74

74:                                               ; preds = %70, %61, %._crit_edge, %59, %53
  call void @disable_all_timeouts(i1 noundef zeroext false) #7
  store volatile i32 0, ptr @got_standby_lock_timeout, align 4
  store volatile i32 0, ptr @got_standby_deadlock_timeout, align 4
  ret void
}